; Function Attrs: nounwind uwtable
define internal fastcc void @dissect_homeplug_av_lnk_stats_tx(ptr noundef %0) unnamed_addr #0 {
  %2 = tail call ptr @ptvcursor_tree(ptr noundef %0) #5
  %.not = icmp eq ptr %2, null
  br i1 %.not, label %18, label %3

3:                                                ; preds = %1
  %4 = load i32, ptr @hf_homeplug_av_lnk_stats_tx, align 4
  %5 = tail call ptr @ptvcursor_add_no_advance(ptr noundef %0, i32 noundef %4, i32 noundef -1, i32 noundef 0) #5
  %6 = load i32, ptr @ett_homeplug_av_lnk_stats_tx, align 4
  %7 = tail call ptr @ptvcursor_push_subtree(ptr noundef %0, ptr noundef %5, i32 noundef %6) #5
  %8 = load i32, ptr @hf_homeplug_av_lnk_stats_tx_mpdu_ack, align 4
  %9 = tail call ptr @ptvcursor_add(ptr noundef %0, i32 noundef %8, i32 noundef 8, i32 noundef -2147483648) #5
  %10 = load i32, ptr @hf_homeplug_av_lnk_stats_tx_mpdu_col, align 4
  %11 = tail call ptr @ptvcursor_add(ptr noundef %0, i32 noundef %10, i32 noundef 8, i32 noundef -2147483648) #5
  %12 = load i32, ptr @hf_homeplug_av_lnk_stats_tx_mpdu_fai, align 4
  %13 = tail call ptr @ptvcursor_add(ptr noundef %0, i32 noundef %12, i32 noundef 8, i32 noundef -2147483648) #5
  %14 = load i32, ptr @hf_homeplug_av_lnk_stats_tx_pbs_pass, align 4
  %15 = tail call ptr @ptvcursor_add(ptr noundef %0, i32 noundef %14, i32 noundef 8, i32 noundef -2147483648) #5
  %16 = load i32, ptr @hf_homeplug_av_lnk_stats_tx_pbs_fail, align 4
  %17 = tail call ptr @ptvcursor_add(ptr noundef %0, i32 noundef %16, i32 noundef 8, i32 noundef -2147483648) #5
  tail call void @ptvcursor_pop_subtree(ptr noundef %0) #5
  br label %18

18:                                               ; preds = %1, %3
  ret void
}